target datalayout = "e-m:e-p270:32:32-p271:32:32-p272:64:64-i64:64-i128:128-f80:128-n8:16:32:64-S128"
target triple = "x86_64-pc-linux-gnu"

@.str.14 = private unnamed_addr constant [27 x i8] c"../openssl/test/dtlstest.c\00", align 1
@cert = internal global ptr null, align 8
@privkey = internal global ptr null, align 8
@.str.25 = private unnamed_addr constant [117 x i8] c"create_ssl_ctx_pair(NULL, DTLS_server_method(), DTLS_client_method(), DTLS1_VERSION, 0, &sctx, &cctx, cert, privkey)\00", align 1
@.str.33 = private unnamed_addr constant [67 x i8] c"create_ssl_objects(sctx, cctx, &serverssl, &clientssl, NULL, NULL)\00", align 1
@.str.34 = private unnamed_addr constant [60 x i8] c"create_ssl_connection(serverssl, clientssl, SSL_ERROR_NONE)\00", align 1

; Function Attrs: nounwind uwtable
define internal i32 @test_cookie() #0 {
  %1 = alloca i32, align 4
  %2 = alloca ptr, align 8
  %3 = alloca ptr, align 8
  %4 = alloca ptr, align 8
  %5 = alloca ptr, align 8
  %6 = alloca i32, align 4
  %7 = alloca i32, align 4
  call void @llvm.lifetime.start.p0(i64 8, ptr %2) #5
  store ptr null, ptr %2, align 8, !tbaa !11
  call void @llvm.lifetime.start.p0(i64 8, ptr %3) #5
  store ptr null, ptr %3, align 8, !tbaa !11
  call void @llvm.lifetime.start.p0(i64 8, ptr %4) #5
  store ptr null, ptr %4, align 8, !tbaa !13
  call void @llvm.lifetime.start.p0(i64 8, ptr %5) #5
  store ptr null, ptr %5, align 8, !tbaa !13
  call void @llvm.lifetime.start.p0(i64 4, ptr %6) #5
  store i32 0, ptr %6, align 4, !tbaa !9
  %8 = call ptr @DTLS_server_method()
  %9 = call ptr @DTLS_client_method()
  %10 = load ptr, ptr @cert, align 8, !tbaa !4
  %11 = load ptr, ptr @privkey, align 8, !tbaa !4
  %12 = call i32 @create_ssl_ctx_pair(ptr noundef null, ptr noundef %8, ptr noundef %9, i32 noundef 65279, i32 noundef 0, ptr noundef %2, ptr noundef %3, ptr noundef %10, ptr noundef %11)
  %13 = icmp ne i32 %12, 0
  %14 = zext i1 %13 to i32
  %15 = call i32 @test_true(ptr noundef @.str.14, i32 noundef 318, ptr noundef @.str.25, i32 noundef %14)
  %16 = icmp ne i32 %15, 0
  br i1 %16, label %18, label %17

17:                                               ; preds = %0
  store i32 0, ptr %1, align 4
  store i32 1, ptr %7, align 4
  br label %46

18:                                               ; preds = %0
  %19 = load ptr, ptr %2, align 8, !tbaa !11
  %20 = call i64 @SSL_CTX_set_options(ptr noundef %19, i64 noundef 8192)
  %21 = load ptr, ptr %2, align 8, !tbaa !11
  call void @SSL_CTX_set_cookie_generate_cb(ptr noundef %21, ptr noundef @generate_cookie_cb)
  %22 = load ptr, ptr %2, align 8, !tbaa !11
  call void @SSL_CTX_set_cookie_verify_cb(ptr noundef %22, ptr noundef @verify_cookie_cb)
  %23 = load ptr, ptr %2, align 8, !tbaa !11
  %24 = load ptr, ptr %3, align 8, !tbaa !11
  %25 = call i32 @create_ssl_objects(ptr noundef %23, ptr noundef %24, ptr noundef %4, ptr noundef %5, ptr noundef null, ptr noundef null)
  %26 = icmp ne i32 %25, 0
  %27 = zext i1 %26 to i32
  %28 = call i32 @test_true(ptr noundef @.str.14, i32 noundef 334, ptr noundef @.str.33, i32 noundef %27)
  %29 = icmp ne i32 %28, 0
  br i1 %29, label %30, label %38

30:                                               ; preds = %18
  %31 = load ptr, ptr %4, align 8, !tbaa !13
  %32 = load ptr, ptr %5, align 8, !tbaa !13
  %33 = call i32 @create_ssl_connection(ptr noundef %31, ptr noundef %32, i32 noundef 0)
  %34 = icmp ne i32 %33, 0
  %35 = zext i1 %34 to i32
  %36 = call i32 @test_true(ptr noundef @.str.14, i32 noundef 336, ptr noundef @.str.34, i32 noundef %35)
  %37 = icmp ne i32 %36, 0
  br i1 %37, label %39, label %38

38:                                               ; preds = %30, %18
  br label %40

39:                                               ; preds = %30
  store i32 1, ptr %6, align 4, !tbaa !9
  br label %40

40:                                               ; preds = %39, %38
  %41 = load ptr, ptr %4, align 8, !tbaa !13
  call void @SSL_free(ptr noundef %41)
  %42 = load ptr, ptr %5, align 8, !tbaa !13
  call void @SSL_free(ptr noundef %42)
  %43 = load ptr, ptr %2, align 8, !tbaa !11
  call void @SSL_CTX_free(ptr noundef %43)
  %44 = load ptr, ptr %3, align 8, !tbaa !11
  call void @SSL_CTX_free(ptr noundef %44)
  %45 = load i32, ptr %6, align 4, !tbaa !9
  store i32 %45, ptr %1, align 4
  store i32 1, ptr %7, align 4
  br label %46

46:                                               ; preds = %40, %17
  call void @llvm.lifetime.end.p0(i64 4, ptr %6) #5
  call void @llvm.lifetime.end.p0(i64 8, ptr %5) #5
  call void @llvm.lifetime.end.p0(i64 8, ptr %4) #5
  call void @llvm.lifetime.end.p0(i64 8, ptr %3) #5
  call void @llvm.lifetime.end.p0(i64 8, ptr %2) #5
  %47 = load i32, ptr %1, align 4
  ret i32 %47
}