; Function Attrs: nounwind uwtable
define internal range(i32 0, 2) i32 @test_cookie() #1 {
  %1 = alloca ptr, align 8
  %2 = alloca ptr, align 8
  %3 = alloca ptr, align 8
  %4 = alloca ptr, align 8
  call void @llvm.lifetime.start.p0(i64 8, ptr nonnull %1) #8
  store ptr null, ptr %1, align 8, !tbaa !9
  call void @llvm.lifetime.start.p0(i64 8, ptr nonnull %2) #8
  store ptr null, ptr %2, align 8, !tbaa !9
  call void @llvm.lifetime.start.p0(i64 8, ptr nonnull %3) #8
  store ptr null, ptr %3, align 8, !tbaa !11
  call void @llvm.lifetime.start.p0(i64 8, ptr nonnull %4) #8
  store ptr null, ptr %4, align 8, !tbaa !11
  %5 = tail call ptr @DTLS_server_method() #8
  %6 = tail call ptr @DTLS_client_method() #8
  %7 = load ptr, ptr @cert, align 8, !tbaa !4
  %8 = load ptr, ptr @privkey, align 8, !tbaa !4
  %9 = call i32 @create_ssl_ctx_pair(ptr noundef null, ptr noundef %5, ptr noundef %6, i32 noundef 65279, i32 noundef 0, ptr noundef nonnull %1, ptr noundef nonnull %2, ptr noundef %7, ptr noundef %8) #8
  %10 = icmp ne i32 %9, 0
  %11 = zext i1 %10 to i32
  %12 = call i32 @test_true(ptr noundef nonnull @.str.14, i32 noundef 318, ptr noundef nonnull @.str.25, i32 noundef %11) #8
  %.not = icmp eq i32 %12, 0
  br i1 %.not, label %36, label %13

13:                                               ; preds = %0
  %14 = load ptr, ptr %1, align 8, !tbaa !9
  %15 = call i64 @SSL_CTX_set_options(ptr noundef %14, i64 noundef 8192) #8
  %16 = load ptr, ptr %1, align 8, !tbaa !9
  call void @SSL_CTX_set_cookie_generate_cb(ptr noundef %16, ptr noundef nonnull @generate_cookie_cb) #8
  %17 = load ptr, ptr %1, align 8, !tbaa !9
  call void @SSL_CTX_set_cookie_verify_cb(ptr noundef %17, ptr noundef nonnull @verify_cookie_cb) #8
  %18 = load ptr, ptr %1, align 8, !tbaa !9
  %19 = load ptr, ptr %2, align 8, !tbaa !9
  %20 = call i32 @create_ssl_objects(ptr noundef %18, ptr noundef %19, ptr noundef nonnull %3, ptr noundef nonnull %4, ptr noundef null, ptr noundef null) #8
  %21 = icmp ne i32 %20, 0
  %22 = zext i1 %21 to i32
  %23 = call i32 @test_true(ptr noundef nonnull @.str.14, i32 noundef 334, ptr noundef nonnull @.str.33, i32 noundef %22) #8
  %.not3 = icmp eq i32 %23, 0
  br i1 %.not3, label %31, label %24

24:                                               ; preds = %13
  %25 = load ptr, ptr %3, align 8, !tbaa !11
  %26 = load ptr, ptr %4, align 8, !tbaa !11
  %27 = call i32 @create_ssl_connection(ptr noundef %25, ptr noundef %26, i32 noundef 0) #8
  %28 = icmp ne i32 %27, 0
  %29 = zext i1 %28 to i32
  %30 = call i32 @test_true(ptr noundef nonnull @.str.14, i32 noundef 336, ptr noundef nonnull @.str.34, i32 noundef %29) #8
  %.not4 = icmp ne i32 %30, 0
  %spec.select = zext i1 %.not4 to i32
  br label %31

31:                                               ; preds = %24, %13
  %.0 = phi i32 [ 0, %13 ], [ %spec.select, %24 ]
  %32 = load ptr, ptr %3, align 8, !tbaa !11
  call void @SSL_free(ptr noundef %32) #8
  %33 = load ptr, ptr %4, align 8, !tbaa !11
  call void @SSL_free(ptr noundef %33) #8
  %34 = load ptr, ptr %1, align 8, !tbaa !9
  call void @SSL_CTX_free(ptr noundef %34) #8
  %35 = load ptr, ptr %2, align 8, !tbaa !9
  call void @SSL_CTX_free(ptr noundef %35) #8
  br label %36

36:                                               ; preds = %0, %31
  %.02 = phi i32 [ %.0, %31 ], [ 0, %0 ]
  call void @llvm.lifetime.end.p0(i64 8, ptr nonnull %4) #8
  call void @llvm.lifetime.end.p0(i64 8, ptr nonnull %3) #8
  call void @llvm.lifetime.end.p0(i64 8, ptr nonnull %2) #8
  call void @llvm.lifetime.end.p0(i64 8, ptr nonnull %1) #8
  ret i32 %.02
}